; Function Attrs: mustprogress nounwind uwtable
define hidden void @_ZNK5XHeap8print_onEP12outputStream(ptr noundef nonnull align 64 dereferenceable(4088) %0, ptr noundef %1) local_unnamed_addr #1 align 2 {
  %3 = getelementptr inbounds i8, ptr %0, i64 176
  %4 = tail call noundef i64 @_ZNK14XPageAllocator4usedEv(ptr noundef nonnull align 8 dereferenceable(609) %3) #12
  %5 = lshr i64 %4, 20
  %6 = tail call noundef i64 @_ZNK14XPageAllocator8capacityEv(ptr noundef nonnull align 8 dereferenceable(609) %3) #12
  %7 = lshr i64 %6, 20
  %8 = tail call noundef i64 @_ZNK14XPageAllocator12max_capacityEv(ptr noundef nonnull align 8 dereferenceable(609) %3) #12
  %9 = lshr i64 %8, 20
  tail call void (ptr, ptr, ...) @_ZN12outputStream8print_crEPKcz(ptr noundef nonnull align 8 dereferenceable(56) %1, ptr noundef nonnull @.str.10, i64 noundef %5, i64 noundef %7, i64 noundef %9) #12
  tail call void @_ZN14MetaspaceUtils8print_onEP12outputStream(ptr noundef nonnull %1) #12
  ret void
}